target datalayout = "e-m:e-p270:32:32-p271:32:32-p272:64:64-i64:64-i128:128-f80:128-n8:16:32:64-S128"
target triple = "x86_64-pc-linux-gnu"

%struct.lstopo_output = type { ptr, i32, i32, i32, ptr, i32, i32, i32, i32, i32, i32, i32, i32, ptr, ptr, i32, i32, i64, i64, i64, i32, [3 x [128 x i8]], i32, i32, ptr, i32, i32, i32, i32, i32, i32, %struct.hwloc_calc_level, i32, i32, i32, i64, [256 x i8], i32, i32, i32, i32, i32, float, [20 x i32], i32, i32, i32, [20 x i32], i32, [20 x i32], i32, [20 x i32], i32, i32, i32, i32, ptr, ptr, i32, [20 x i32], [20 x i32], [20 x i32], ptr, ptr, i64, ptr, i32, i32, i32 }
%struct.hwloc_calc_level = type { i32, i32, %union.hwloc_obj_attr_u, [32 x i8], i32, i32, i32, i32 }
%union.hwloc_obj_attr_u = type { %struct.hwloc_numanode_attr_s, [24 x i8] }
%struct.hwloc_numanode_attr_s = type { i64, i32, ptr }

@.str.12 = private unnamed_addr constant [7 x i8] c" %u %u\00", align 1
@.str.13 = private unnamed_addr constant [2 x i8] c"\0A\00", align 1
@.str.14 = private unnamed_addr constant [41 x i8] c"2 1 0 %u 0 0 %u -1 -1 0.0 0 0 -1 0 0 2\0A\09\00", align 1

; Function Attrs: nounwind uwtable
define internal void @fig_line(ptr noundef %0, i32 noundef %1, i32 noundef %2, i32 noundef %3, i32 noundef %4, i32 noundef %5, ptr noundef %6, i32 noundef %7) #0 {
  %9 = alloca ptr, align 8
  %10 = alloca i32, align 4
  %11 = alloca i32, align 4
  %12 = alloca i32, align 4
  %13 = alloca i32, align 4
  %14 = alloca i32, align 4
  %15 = alloca ptr, align 8
  %16 = alloca i32, align 4
  %17 = alloca ptr, align 8
  store ptr %0, ptr %9, align 8, !tbaa !4
  store i32 %1, ptr %10, align 4, !tbaa !24
  store i32 %2, ptr %11, align 4, !tbaa !24
  store i32 %3, ptr %12, align 4, !tbaa !24
  store i32 %4, ptr %13, align 4, !tbaa !24
  store i32 %5, ptr %14, align 4, !tbaa !24
  store ptr %6, ptr %15, align 8, !tbaa !36
  store i32 %7, ptr %16, align 4, !tbaa !24
  call void @llvm.lifetime.start.p0(i64 8, ptr %17) #7
  %18 = load ptr, ptr %9, align 8, !tbaa !4
  %19 = getelementptr inbounds nuw %struct.lstopo_output, ptr %18, i32 0, i32 4
  %20 = load ptr, ptr %19, align 8, !tbaa !25
  store ptr %20, ptr %17, align 8, !tbaa !23
  %21 = load i32, ptr %11, align 4, !tbaa !24
  %22 = mul i32 %21, 20
  store i32 %22, ptr %11, align 4, !tbaa !24
  %23 = load i32, ptr %12, align 4, !tbaa !24
  %24 = mul i32 %23, 20
  store i32 %24, ptr %12, align 4, !tbaa !24
  %25 = load i32, ptr %13, align 4, !tbaa !24
  %26 = mul i32 %25, 20
  store i32 %26, ptr %13, align 4, !tbaa !24
  %27 = load i32, ptr %14, align 4, !tbaa !24
  %28 = mul i32 %27, 20
  store i32 %28, ptr %14, align 4, !tbaa !24
  %29 = load ptr, ptr %17, align 8, !tbaa !23
  %30 = load ptr, ptr %9, align 8, !tbaa !4
  %31 = getelementptr inbounds nuw %struct.lstopo_output, ptr %30, i32 0, i32 41
  %32 = load i32, ptr %31, align 8, !tbaa !38
  %33 = load i32, ptr %10, align 4, !tbaa !24
  %34 = call i32 (ptr, ptr, ...) @fprintf(ptr noundef %29, ptr noundef @.str.14, i32 noundef %32, i32 noundef %33) #7
  %35 = load ptr, ptr %17, align 8, !tbaa !23
  %36 = load i32, ptr %11, align 4, !tbaa !24
  %37 = load i32, ptr %12, align 4, !tbaa !24
  %38 = call i32 (ptr, ptr, ...) @fprintf(ptr noundef %35, ptr noundef @.str.12, i32 noundef %36, i32 noundef %37) #7
  %39 = load ptr, ptr %17, align 8, !tbaa !23
  %40 = load i32, ptr %13, align 4, !tbaa !24
  %41 = load i32, ptr %14, align 4, !tbaa !24
  %42 = call i32 (ptr, ptr, ...) @fprintf(ptr noundef %39, ptr noundef @.str.12, i32 noundef %40, i32 noundef %41) #7
  %43 = load ptr, ptr %17, align 8, !tbaa !23
  %44 = call i32 (ptr, ptr, ...) @fprintf(ptr noundef %43, ptr noundef @.str.13) #7
  call void @llvm.lifetime.end.p0(i64 8, ptr %17) #7
  ret void
}