; Function Attrs: nofree nounwind uwtable
define internal void @fig_line(ptr noundef readonly captures(none) %0, i32 noundef %1, i32 noundef %2, i32 noundef %3, i32 noundef %4, i32 noundef %5, ptr readnone captures(none) %6, i32 %7) #5 {
  %9 = getelementptr inbounds nuw i8, ptr %0, i64 24
  %10 = load ptr, ptr %9, align 8, !tbaa !22
  %11 = mul i32 %2, 20
  %12 = mul i32 %3, 20
  %13 = mul i32 %4, 20
  %14 = mul i32 %5, 20
  %15 = getelementptr inbounds nuw i8, ptr %0, i64 944
  %16 = load i32, ptr %15, align 8, !tbaa !46
  %17 = tail call i32 (ptr, ptr, ...) @fprintf(ptr noundef %10, ptr noundef nonnull @.str.14, i32 noundef %16, i32 noundef %1) #9
  %18 = tail call i32 (ptr, ptr, ...) @fprintf(ptr noundef %10, ptr noundef nonnull @.str.12, i32 noundef %11, i32 noundef %12) #9
  %19 = tail call i32 (ptr, ptr, ...) @fprintf(ptr noundef %10, ptr noundef nonnull @.str.12, i32 noundef %13, i32 noundef %14) #9
  %fputc = tail call i32 @fputc(i32 10, ptr %10)
  ret void
}